target datalayout = "e-m:e-p270:32:32-p271:32:32-p272:64:64-i64:64-i128:128-f80:128-n8:16:32:64-S128"
target triple = "x86_64-pc-linux-gnu"

%"class.arrow::MemoryPool" = type { ptr }
%"class.arrow::internal::MemoryPoolStats" = type { %"struct.std::atomic", %"struct.std::atomic", %"struct.std::atomic", %"struct.std::atomic", [32 x i8] }
%"struct.std::atomic" = type { %"struct.std::__atomic_base" }
%"struct.std::__atomic_base" = type { i64 }
%"class.arrow::BaseMemoryPoolImpl" = type { %"class.arrow::MemoryPool", [56 x i8], %"class.arrow::internal::MemoryPoolStats" }

@_ZN5arrow11memory_pool8internal14zero_size_areaE = global [1 x i64] [i64 -1738363128204640648], align 64
@.str.54 = private unnamed_addr constant [13 x i8] c"deallocation\00", align 1

; Function Attrs: alwaysinline mustprogress nounwind uwtable
define linkonce_odr noundef i64 @_ZNSt13__atomic_baseIlE9fetch_subElSt12memory_order(ptr noundef nonnull align 8 dereferenceable(8) %0, i64 noundef %1, i32 noundef %2) #18 comdat align 2 {
  %4 = alloca ptr, align 8
  %5 = alloca i64, align 8
  %6 = alloca i32, align 4
  %7 = alloca i64, align 8
  %8 = alloca i64, align 8
  store ptr %0, ptr %4, align 8, !tbaa !201
  store i64 %1, ptr %5, align 8, !tbaa !68
  store i32 %2, ptr %6, align 4, !tbaa !222
  %9 = load ptr, ptr %4, align 8
  %10 = getelementptr inbounds nuw %"struct.std::__atomic_base", ptr %9, i32 0, i32 0
  %11 = load i32, ptr %6, align 4, !tbaa !222
  %12 = load i64, ptr %5, align 8, !tbaa !68
  store i64 %12, ptr %7, align 8, !tbaa !68
  switch i32 %11, label %13 [
    i32 1, label %16
    i32 2, label %16
    i32 3, label %19
    i32 4, label %22
    i32 5, label %25
  ]

13:                                               ; preds = %3
  %14 = load i64, ptr %7, align 8
  %15 = atomicrmw sub ptr %10, i64 %14 monotonic, align 8
  store i64 %15, ptr %8, align 8
  br label %28

16:                                               ; preds = %3, %3
  %17 = load i64, ptr %7, align 8
  %18 = atomicrmw sub ptr %10, i64 %17 acquire, align 8
  store i64 %18, ptr %8, align 8
  br label %28

19:                                               ; preds = %3
  %20 = load i64, ptr %7, align 8
  %21 = atomicrmw sub ptr %10, i64 %20 release, align 8
  store i64 %21, ptr %8, align 8
  br label %28

22:                                               ; preds = %3
  %23 = load i64, ptr %7, align 8
  %24 = atomicrmw sub ptr %10, i64 %23 acq_rel, align 8
  store i64 %24, ptr %8, align 8
  br label %28

25:                                               ; preds = %3
  %26 = load i64, ptr %7, align 8
  %27 = atomicrmw sub ptr %10, i64 %26 seq_cst, align 8
  store i64 %27, ptr %8, align 8
  br label %28

28:                                               ; preds = %25, %22, %19, %16, %13
  %29 = load i64, ptr %8, align 8, !tbaa !68
  ret i64 %29
}

; Function Attrs: mustprogress nounwind uwtable
define internal void @_ZN5arrow12_GLOBAL__N_115SystemAllocator17DeallocateAlignedEPhll(ptr noundef %0, i64 noundef %1, i64 noundef %2) #4 align 2 {
  %4 = alloca ptr, align 8
  %5 = alloca i64, align 8
  %6 = alloca i64, align 8
  store ptr %0, ptr %4, align 8, !tbaa !10
  store i64 %1, ptr %5, align 8, !tbaa !68
  store i64 %2, ptr %6, align 8, !tbaa !68
  %7 = load ptr, ptr %4, align 8, !tbaa !10
  %8 = icmp eq ptr %7, @_ZN5arrow11memory_pool8internal14zero_size_areaE
  br i1 %8, label %9, label %19

9:                                                ; preds = %3
  br label %10

10:                                               ; preds = %11, %9
  br i1 false, label %11, label %12

11:                                               ; preds = %10
  br label %10, !llvm.loop !498

12:                                               ; preds = %10
  br label %13

13:                                               ; preds = %14, %12
  br i1 false, label %14, label %15

14:                                               ; preds = %13
  br label %13, !llvm.loop !499

15:                                               ; preds = %13
  br label %16

16:                                               ; preds = %17, %15
  br i1 false, label %17, label %18

17:                                               ; preds = %16
  br label %16, !llvm.loop !500

18:                                               ; preds = %16
  br label %21

19:                                               ; preds = %3
  %20 = load ptr, ptr %4, align 8, !tbaa !10
  call void @free(ptr noundef %20) #3
  br label %21

21:                                               ; preds = %19, %18
  ret void
}

; Function Attrs: inlinehint mustprogress nounwind uwtable
define linkonce_odr void @_ZN5arrow8internal15MemoryPoolStats12DidFreeBytesEl(ptr noundef nonnull align 64 dereferenceable(32) %0, i64 noundef %1) #8 comdat align 2 {
  %3 = alloca ptr, align 8
  %4 = alloca i64, align 8
  store ptr %0, ptr %3, align 8, !tbaa !197
  store i64 %1, ptr %4, align 8, !tbaa !68
  %5 = load ptr, ptr %3, align 8
  %6 = getelementptr inbounds nuw %"class.arrow::internal::MemoryPoolStats", ptr %5, i32 0, i32 1
  %7 = load i64, ptr %4, align 8, !tbaa !68
  %8 = call noundef i64 @_ZNSt13__atomic_baseIlE9fetch_subElSt12memory_order(ptr noundef nonnull align 8 dereferenceable(8) %6, i64 noundef %7, i32 noundef 4) #3
  ret void
}

; Function Attrs: mustprogress uwtable
define internal void @_ZN5arrow12_GLOBAL__N_114DebugAllocatorINS0_15SystemAllocatorEE17DeallocateAlignedEPhll(ptr noundef %0, i64 noundef %1, i64 noundef %2) #5 align 2 {
  %4 = alloca ptr, align 8
  %5 = alloca i64, align 8
  %6 = alloca i64, align 8
  store ptr %0, ptr %4, align 8, !tbaa !10
  store i64 %1, ptr %5, align 8, !tbaa !68
  store i64 %2, ptr %6, align 8, !tbaa !68
  %7 = load ptr, ptr %4, align 8, !tbaa !10
  %8 = load i64, ptr %5, align 8, !tbaa !68
  call void @_ZN5arrow12_GLOBAL__N_114DebugAllocatorINS0_15SystemAllocatorEE18CheckAllocatedAreaEPhlPKc(ptr noundef %7, i64 noundef %8, ptr noundef @.str.54)
  %9 = load ptr, ptr %4, align 8, !tbaa !10
  %10 = icmp ne ptr %9, @_ZN5arrow11memory_pool8internal14zero_size_areaE
  br i1 %10, label %11, label %16

11:                                               ; preds = %3
  %12 = load ptr, ptr %4, align 8, !tbaa !10
  %13 = load i64, ptr %5, align 8, !tbaa !68
  %14 = add nsw i64 %13, 8
  %15 = load i64, ptr %6, align 8, !tbaa !68
  call void @_ZN5arrow12_GLOBAL__N_115SystemAllocator17DeallocateAlignedEPhll(ptr noundef %12, i64 noundef %14, i64 noundef %15)
  br label %16

16:                                               ; preds = %11, %3
  ret void
}

; Function Attrs: mustprogress uwtable
define internal void @_ZN5arrow18BaseMemoryPoolImplINS_12_GLOBAL__N_114DebugAllocatorINS1_15SystemAllocatorEEEE4FreeEPhll(ptr noundef nonnull align 64 dereferenceable(128) %0, ptr noundef %1, i64 noundef %2, i64 noundef %3) unnamed_addr #5 align 2 {
  %5 = alloca ptr, align 8
  %6 = alloca ptr, align 8
  %7 = alloca i64, align 8
  %8 = alloca i64, align 8
  store ptr %0, ptr %5, align 8, !tbaa !117
  store ptr %1, ptr %6, align 8, !tbaa !10
  store i64 %2, ptr %7, align 8, !tbaa !68
  store i64 %3, ptr %8, align 8, !tbaa !68
  %9 = load ptr, ptr %5, align 8
  %10 = load ptr, ptr %6, align 8, !tbaa !10
  %11 = load i64, ptr %7, align 8, !tbaa !68
  %12 = load i64, ptr %8, align 8, !tbaa !68
  call void @_ZN5arrow12_GLOBAL__N_114DebugAllocatorINS0_15SystemAllocatorEE17DeallocateAlignedEPhll(ptr noundef %10, i64 noundef %11, i64 noundef %12)
  %13 = getelementptr inbounds nuw %"class.arrow::BaseMemoryPoolImpl", ptr %9, i32 0, i32 2
  %14 = load i64, ptr %7, align 8, !tbaa !68
  call void @_ZN5arrow8internal15MemoryPoolStats12DidFreeBytesEl(ptr noundef nonnull align 64 dereferenceable(32) %13, i64 noundef %14)
  ret void
}