; Function Attrs: mustprogress uwtable
define internal void @_ZN5arrow18BaseMemoryPoolImplINS_12_GLOBAL__N_114DebugAllocatorINS1_15SystemAllocatorEEEE4FreeEPhll(ptr noundef nonnull align 64 captures(none) dereferenceable(128) %0, ptr noundef %1, i64 noundef %2, i64 %3) unnamed_addr #4 align 2 {
  tail call fastcc void @_ZN5arrow12_GLOBAL__N_114DebugAllocatorINS0_15SystemAllocatorEE18CheckAllocatedAreaEPhlPKc(ptr noundef %1, i64 noundef %2, ptr noundef nonnull @.str.54)
  %.not.i = icmp eq ptr %1, @_ZN5arrow11memory_pool8internal14zero_size_areaE
  br i1 %.not.i, label %_ZN5arrow12_GLOBAL__N_114DebugAllocatorINS0_15SystemAllocatorEE17DeallocateAlignedEPhll.exit, label %_ZN5arrow12_GLOBAL__N_115SystemAllocator17DeallocateAlignedEPhll.exit.i

_ZN5arrow12_GLOBAL__N_115SystemAllocator17DeallocateAlignedEPhll.exit.i: ; preds = %4
  tail call void @free(ptr noundef %1) #32
  br label %_ZN5arrow12_GLOBAL__N_114DebugAllocatorINS0_15SystemAllocatorEE17DeallocateAlignedEPhll.exit

_ZN5arrow12_GLOBAL__N_114DebugAllocatorINS0_15SystemAllocatorEE17DeallocateAlignedEPhll.exit: ; preds = %4, %_ZN5arrow12_GLOBAL__N_115SystemAllocator17DeallocateAlignedEPhll.exit.i
  %5 = getelementptr inbounds nuw i8, ptr %0, i64 72
  %6 = atomicrmw sub ptr %5, i64 %2 acq_rel, align 8
  ret void
}